libktpchat.so:_ZN10ChatWidget11changeEventEP6QEvent
libktpchat.so:_ZN10ChatWidget11iconChangedERK5QIcon
libktpchat.so:_ZN10ChatWidget11qt_metacallEN11QMetaObject4CallEiPPv
libktpchat.so:_ZN10ChatWidget11qt_metacastEPKc
libktpchat.so:_ZN10ChatWidget11reloadThemeEv
libktpchat.so:_ZN10ChatWidget11resizeEventEP12QResizeEvent
libktpchat.so:_ZN10ChatWidget11sendMessageEv
libktpchat.so:_ZN10ChatWidget12initChatAreaEv
libktpchat.so:_ZN10ChatWidget12titleChangedERK7QString
libktpchat.so:_ZN10ChatWidget13chatViewReadyEv
libktpchat.so:_ZN10ChatWidget13keyPressEventEP9QKeyEvent
libktpchat.so:_ZN10ChatWidget13setZoomFactorEd
libktpchat.so:_ZN10ChatWidget14blockTextInputEb
libktpchat.so:_ZN10ChatWidget14dragEnterEventEP15QDragEnterEvent
libktpchat.so:_ZN10ChatWidget14findTextInChatERK7QString6QFlagsIN14QWebEnginePage8FindFlagEE
libktpchat.so:_ZN10ChatWidget14setChatEnabledEb
libktpchat.so:_ZN10ChatWidget14setTextChannelERKN2Tp9SharedPtrINS0_11TextChannelEEE
libktpchat.so:_ZN10ChatWidget14stopOtrSessionEv
libktpchat.so:_ZN10ChatWidget15messageReceivedERKN2Tp15ReceivedMessageE
libktpchat.so:_ZN10ChatWidget15remoteChatStateEv
libktpchat.so:_ZN10ChatWidget15startOtrSessionEv
libktpchat.so:_ZN10ChatWidget16onHistoryFetchedERK5QListIN3KTp7MessageEE
libktpchat.so:_ZN10ChatWidget16otrStatusChangedE9OtrStatus
libktpchat.so:_ZN10ChatWidget17addEmoticonToChatERK7QString
libktpchat.so:_ZN10ChatWidget17authenticateBuddyEv
libktpchat.so:_ZN10ChatWidget17handleMessageSentERKN2Tp7MessageE6QFlagsINS0_18MessageSendingFlagEERK7QString
libktpchat.so:_ZN10ChatWidget17onInputBoxChangedEv
libktpchat.so:_ZN10ChatWidget17onSendFileClickedEv
libktpchat.so:_ZN10ChatWidget17userTypingChangedEN2Tp16ChannelChatStateE
libktpchat.so:_ZN10ChatWidget17zoomFactorChangedEd
libktpchat.so:_ZN10ChatWidget18findNextTextInChatERK7QString6QFlagsIN14QWebEnginePage8FindFlagEE
libktpchat.so:_ZN10ChatWidget18searchTextCompleteEb
libktpchat.so:_ZN10ChatWidget18setSpellDictionaryERK7QString
libktpchat.so:_ZN10ChatWidget19acknowledgeMessagesEv
libktpchat.so:_ZN10ChatWidget19notificationClickedEv
libktpchat.so:_ZN10ChatWidget19onChatStatusChangedERKN2Tp9SharedPtrINS0_7ContactEEENS0_16ChannelChatStateE
libktpchat.so:_ZN10ChatWidget19setupChannelSignalsEv
libktpchat.so:_ZN10ChatWidget20onChannelInvalidatedEv
libktpchat.so:_ZN10ChatWidget21handleIncomingMessageERKN2Tp15ReceivedMessageEb
libktpchat.so:_ZN10ChatWidget21onContactAliasChangedERKN2Tp9SharedPtrINS0_7ContactEEERK7QString
libktpchat.so:_ZN10ChatWidget21onOTRsessionRefreshedEv
libktpchat.so:_ZN10ChatWidget21onParticipantsChangedE4QSetIN2Tp9SharedPtrINS1_7ContactEEEES5_S5_S5_NS1_7Channel24GroupMemberChangeDetailsE
libktpchat.so:_ZN10ChatWidget21unreadMessagesChangedEv
libktpchat.so:_ZN10ChatWidget22contactPresenceChangedEN3KTp8PresenceE
libktpchat.so:_ZN10ChatWidget22currentPresenceChangedERKN2Tp8PresenceE
libktpchat.so:_ZN10ChatWidget22findPreviousTextInChatERK7QString6QFlagsIN14QWebEnginePage8FindFlagEE
libktpchat.so:_ZN10ChatWidget22onOTRTrustLevelChangedEN3KTp13OTRTrustLevelES1_
libktpchat.so:_ZN10ChatWidget23loadSpellCheckingOptionEv
libktpchat.so:_ZN10ChatWidget23onContactPresenceChangeERKN2Tp9SharedPtrINS0_7ContactEEERKN3KTp8PresenceE
libktpchat.so:_ZN10ChatWidget23saveSpellCheckingOptionEv
libktpchat.so:_ZN10ChatWidget24onChatPausedTimerExpiredEv
libktpchat.so:_ZN10ChatWidget24setupContactModelSignalsEv
libktpchat.so:_ZN10ChatWidget25contactBlockStatusChangedEb
libktpchat.so:_ZN10ChatWidget26onPeerAuthenticationFailedEv
libktpchat.so:_ZN10ChatWidget26updateSendMessageShortcutsERK5QListI12QKeySequenceE
libktpchat.so:_ZN10ChatWidget27onContactBlockStatusChangedERKN2Tp9SharedPtrINS0_7ContactEEEb
libktpchat.so:_ZN10ChatWidget27onContactClientTypesChangedERKN2Tp9SharedPtrINS0_7ContactEEERK11QStringList
libktpchat.so:_ZN10ChatWidget27onPeerAuthenticationAbortedEv
libktpchat.so:_ZN10ChatWidget27onShowContactDetailsClickedEv
libktpchat.so:_ZN10ChatWidget29onPeerAuthenticationConcludedEb
libktpchat.so:_ZN10ChatWidget29previousConversationAvailableEv
libktpchat.so:_ZN10ChatWidget30onOpenContactChatWindowClickedEv
libktpchat.so:_ZN10ChatWidget30onPeerAuthenticationInProgressEv
libktpchat.so:_ZN10ChatWidget30onShareProviderFinishedFailureEP13ShareProviderRK7QString
libktpchat.so:_ZN10ChatWidget30onShareProviderFinishedSuccessEP13ShareProviderRK7QString
libktpchat.so:_ZN10ChatWidget31onPeerAuthenticationRequestedQAERK7QString
libktpchat.so:_ZN10ChatWidget31onPeerAuthenticationRequestedSSEv
libktpchat.so:_ZN10ChatWidget31onShareImageMenuActionTriggeredEv
libktpchat.so:_ZN10ChatWidget32setCurrentKeyboardLayoutLanguageERK7QString
libktpchat.so:_ZN10ChatWidget33onFileTransferMenuActionTriggeredEv
libktpchat.so:_ZN10ChatWidget33temporaryFileTransferStateChangedEN2Tp17FileTransferStateENS0_29FileTransferStateChangeReasonE
libktpchat.so:_ZN10ChatWidget34onContactsViewContextMenuRequestedERK6QPoint
libktpchat.so:_ZN10ChatWidget35temporaryFileTransferChannelCreatedEPN2Tp16PendingOperationE
libktpchat.so:_ZN10ChatWidget42onMessageWidgetSwitchOnlineActionTriggeredEv
libktpchat.so:_ZN10ChatWidget5clearEv
libktpchat.so:_ZN10ChatWidget8setupOTREv
libktpchat.so:_ZN10ChatWidget9dropEventEP10QDropEvent
libktpchat.so:_ZN10ChatWidgetC1ERKN2Tp9SharedPtrINS0_11TextChannelEEERKNS1_INS0_7AccountEEEP7QWidget
libktpchat.so:_ZN10ChatWidgetC2ERKN2Tp9SharedPtrINS0_11TextChannelEEERKNS1_INS0_7AccountEEEP7QWidget
libktpchat.so:_ZN10ChatWidgetD0Ev
libktpchat.so:_ZN10ChatWidgetD1Ev
libktpchat.so:_ZN10ChatWidgetD2Ev
libktpchat.so:_ZN12NotifyFilter11qt_metacallEN11QMetaObject4CallEiPPv
libktpchat.so:_ZN12NotifyFilter11qt_metacastEPKc
libktpchat.so:_ZN12NotifyFilter13filterMessageERN3KTp7MessageERKNS0_14MessageContextE
libktpchat.so:_ZN12NotifyFilterC1EP10ChatWidget
libktpchat.so:_ZN12NotifyFilterC2EP10ChatWidget
libktpchat.so:_ZN12ProxyService11qt_metacallEN11QMetaObject4CallEiPPv
libktpchat.so:_ZN12ProxyService11qt_metacastEPKc
libktpchat.so:_ZN12ProxyService12setOTRPolicyEj
libktpchat.so:_ZN12ProxyService14onDialogClosedEv
libktpchat.so:_ZN12ProxyService14proxyConnectedERK15QDBusObjectPath
libktpchat.so:_ZN12ProxyService16trustFingerprintERK15QDBusObjectPathRK7QStringS5_b
libktpchat.so:_ZN12ProxyService17forgetFingerprintERK15QDBusObjectPathRK7QStringS5_
libktpchat.so:_ZN12ProxyService17proxyDisconnectedERK15QDBusObjectPath
libktpchat.so:_ZN12ProxyService18generatePrivateKeyERK15QDBusObjectPath
libktpchat.so:_ZN12ProxyService19isOngoingGenerationERK15QDBusObjectPath
libktpchat.so:_ZN12ProxyService20keyGenerationStartedEN2Tp9SharedPtrINS0_7AccountEEE
libktpchat.so:_ZN12ProxyService21keyGenerationFinishedEN2Tp9SharedPtrINS0_7AccountEEEb
libktpchat.so:_ZN12ProxyService22onKeyGenerationStartedERK15QDBusObjectPath
libktpchat.so:_ZN12ProxyService23onKeyGenerationFinishedERK15QDBusObjectPathb
libktpchat.so:_ZN12ProxyServiceC1ERK15QDBusConnectionRK7QStringS5_P7QWidget
libktpchat.so:_ZN12ProxyServiceC2ERK15QDBusConnectionRK7QStringS5_P7QWidget
libktpchat.so:_ZN12ProxyServiceD0Ev
libktpchat.so:_ZN12ProxyServiceD1Ev
libktpchat.so:_ZN12ProxyServiceD2Ev
libktpchat.so:_ZN13ChatSearchBar10toggleViewEb
libktpchat.so:_ZN13ChatSearchBar11qt_metacallEN11QMetaObject4CallEiPPv
libktpchat.so:_ZN13ChatSearchBar11qt_metacastEPKc
libktpchat.so:_ZN13ChatSearchBar11textChangedERK7QString
libktpchat.so:_ZN13ChatSearchBar14findNextSignalERK7QString6QFlagsIN14QWebEnginePage8FindFlagEE
libktpchat.so:_ZN13ChatSearchBar14findTextSignalERK7QString6QFlagsIN14QWebEnginePage8FindFlagEE
libktpchat.so:_ZN13ChatSearchBar18findPreviousSignalERK7QString6QFlagsIN14QWebEnginePage8FindFlagEE
libktpchat.so:_ZN13ChatSearchBar18flagsChangedSignalERK7QString6QFlagsIN14QWebEnginePage8FindFlagEE
libktpchat.so:_ZN13ChatSearchBar19enableSearchButtonsEb
libktpchat.so:_ZN13ChatSearchBar19onNextButtonClickedEv
libktpchat.so:_ZN13ChatSearchBar19toggleCaseSensitiveEb
libktpchat.so:_ZN13ChatSearchBar20onSearchTextCompleteEb
libktpchat.so:_ZN13ChatSearchBar23onPreviousButtonClickedEv
libktpchat.so:_ZN13ChatSearchBar25enableSearchButtonsSignalEb
libktpchat.so:_ZN13ChatSearchBar5eventEP6QEvent
libktpchat.so:_ZN13ChatSearchBar9findFlagsEv
libktpchat.so:_ZN13ChatSearchBarC1EP7QWidget
libktpchat.so:_ZN13ChatSearchBarC2EP7QWidget
libktpchat.so:_ZN13ChatSearchBarD0Ev
libktpchat.so:_ZN13ChatSearchBarD1Ev
libktpchat.so:_ZN13ChatSearchBarD2Ev
libktpchat.so:_ZN14AdiumThemePage11qt_metacallEN11QMetaObject4CallEiPPv
libktpchat.so:_ZN14AdiumThemePage11qt_metacastEPKc
libktpchat.so:_ZN14AdiumThemePage16nextConversationEv
libktpchat.so:_ZN14AdiumThemePage16prevConversationEv
libktpchat.so:_ZN14AdiumThemePage23acceptNavigationRequestERK4QUrlN14QWebEnginePage14NavigationTypeEb
libktpchat.so:_ZN14AdiumThemePageC1EP7QObject
libktpchat.so:_ZN14AdiumThemePageC2EP7QObject
libktpchat.so:_ZN14AdiumThemeView10addMessageERKN3KTp7MessageE
libktpchat.so:_ZN14AdiumThemeView10appendModeERK21AdiumThemeMessageInfobbb
libktpchat.so:_ZN14AdiumThemeView10fontFamilyEv
libktpchat.so:_ZN14AdiumThemeView10formatTimeERK7QStringRK9QDateTime
libktpchat.so:_ZN14AdiumThemeView10initialiseERK20AdiumThemeHeaderInfo
libktpchat.so:_ZN14AdiumThemeView10setVariantERK7QString
libktpchat.so:_ZN14AdiumThemeView10textPastedEv
libktpchat.so:_ZN14AdiumThemeView10wheelEventEP11QWheelEvent
libktpchat.so:_ZN14AdiumThemeView11qt_metacallEN11QMetaObject4CallEiPPv
libktpchat.so:_ZN14AdiumThemeView11qt_metacastEPKc
libktpchat.so:_ZN14AdiumThemeView11setFontSizeEi
libktpchat.so:_ZN14AdiumThemeView12appendScriptENS_10AppendModeE
libktpchat.so:_ZN14AdiumThemeView12setChatStyleEP15ChatWindowStyle
libktpchat.so:_ZN14AdiumThemeView13appendMessageER7QStringRKS0_NS_10AppendModeE
libktpchat.so:_ZN14AdiumThemeView13setFontFamilyE7QString
libktpchat.so:_ZN14AdiumThemeView16addStatusMessageERK7QStringS2_RK9QDateTime
libktpchat.so:_ZN14AdiumThemeView16contextMenuEventEP17QContextMenuEvent
libktpchat.so:_ZN14AdiumThemeView16setUseCustomFontEb
libktpchat.so:_ZN14AdiumThemeView16viewLoadFinishedEb
libktpchat.so:_ZN14AdiumThemeView17mouseReleaseEventEP11QMouseEvent
libktpchat.so:_ZN14AdiumThemeView17zoomFactorChangedEd
libktpchat.so:_ZN14AdiumThemeView18setHeaderDisplayedEb
libktpchat.so:_ZN14AdiumThemeView21addAdiumStatusMessageERK20AdiumThemeStatusInfo
libktpchat.so:_ZN14AdiumThemeView21replaceHeaderKeywordsE7QStringRK20AdiumThemeHeaderInfo
libktpchat.so:_ZN14AdiumThemeView21replaceStatusKeywordsER7QStringRK20AdiumThemeStatusInfo
libktpchat.so:_ZN14AdiumThemeView22addAdiumContentMessageERK21AdiumThemeContentInfo
libktpchat.so:_ZN14AdiumThemeView22replaceContentKeywordsER7QStringRK21AdiumThemeContentInfo
libktpchat.so:_ZN14AdiumThemeView22replaceMessageKeywordsER7QStringRK21AdiumThemeMessageInfo
libktpchat.so:_ZN14AdiumThemeView22setShowPresenceChangesEb
libktpchat.so:_ZN14AdiumThemeView23setShowJoinLeaveChangesEb
libktpchat.so:_ZN14AdiumThemeView4loadENS_8ChatTypeE
libktpchat.so:_ZN14AdiumThemeView5clearEv
libktpchat.so:_ZN14AdiumThemeView8fontSizeEv
libktpchat.so:_ZN14AdiumThemeView9viewReadyEv
libktpchat.so:_ZN14AdiumThemeViewC1EP7QWidget
libktpchat.so:_ZN14AdiumThemeViewC2EP7QWidget
libktpchat.so:_ZN14TextChatConfig11qt_metacallEN11QMetaObject4CallEiPPv
libktpchat.so:_ZN14TextChatConfig11qt_metacastEPKc
libktpchat.so:_ZN14TextChatConfig11setOpenModeENS_11TabOpenModeE
libktpchat.so:_ZN14TextChatConfig12showMeTypingEv
libktpchat.so:_ZN14TextChatConfig15setShowMeTypingEb
libktpchat.so:_ZN14TextChatConfig16scrollbackLengthEv
libktpchat.so:_ZN14TextChatConfig16showOthersTypingEv
libktpchat.so:_ZN14TextChatConfig19setScrollbackLengthEi
libktpchat.so:_ZN14TextChatConfig19setShowOthersTypingEb
libktpchat.so:_ZN14TextChatConfig22setDontLeaveGroupChatsEb
libktpchat.so:_ZN14TextChatConfig24setImageShareServiceNameEN13ShareProvider12ShareServiceE
libktpchat.so:_ZN14TextChatConfig27setNicknameCompletionSuffixERK7QString
libktpchat.so:_ZN14TextChatConfig28setRememberTabKeyboardLayoutEb
libktpchat.so:_ZN14TextChatConfig4syncEv
libktpchat.so:_ZN14TextChatConfig8instanceEv
libktpchat.so:_ZN14TextChatConfig8openModeEv
libktpchat.so:_ZN14TextChatConfigC1Ev
libktpchat.so:_ZN14TextChatConfigC2Ev
libktpchat.so:_ZN14TextChatConfigD0Ev
libktpchat.so:_ZN14TextChatConfigD1Ev
libktpchat.so:_ZN14TextChatConfigD2Ev
libktpchat.so:_ZN15ChatWindowStyle10setContentENS_18InternalIdentifierERK7QString
libktpchat.so:_ZN15ChatWindowStyle11getVariantsEv
libktpchat.so:_ZN15ChatWindowStyle12listVariantsEv
libktpchat.so:_ZN15ChatWindowStyle14inheritContentENS_18InternalIdentifierES0_
libktpchat.so:_ZN15ChatWindowStyle14readStyleFilesEv
libktpchat.so:_ZN15ChatWindowStyle4initERK7QStringNS_14StyleBuildModeE
libktpchat.so:_ZN15ChatWindowStyle6reloadEv
libktpchat.so:_ZN15ChatWindowStyleC1ERK7QStringNS_14StyleBuildModeE
libktpchat.so:_ZN15ChatWindowStyleC1ERK7QStringS2_NS_14StyleBuildModeE
libktpchat.so:_ZN15ChatWindowStyleC2ERK7QStringNS_14StyleBuildModeE
libktpchat.so:_ZN15ChatWindowStyleC2ERK7QStringS2_NS_14StyleBuildModeE
libktpchat.so:_ZN15ChatWindowStyleD0Ev
libktpchat.so:_ZN15ChatWindowStyleD1Ev
libktpchat.so:_ZN15ChatWindowStyleD2Ev
libktpchat.so:_ZN16EmoticonsManager15themeForAccountERKN2Tp9SharedPtrINS0_7AccountEEE
libktpchat.so:_ZN20AdiumThemeHeaderInfo10setServiceERK7QString
libktpchat.so:_ZN20AdiumThemeHeaderInfo11setChatNameERK7QString
libktpchat.so:_ZN20AdiumThemeHeaderInfo12setGroupChatEb
libktpchat.so:_ZN20AdiumThemeHeaderInfo13setSourceNameERK7QString
libktpchat.so:_ZN20AdiumThemeHeaderInfo13setTimeOpenedERK9QDateTime
libktpchat.so:_ZN20AdiumThemeHeaderInfo18setDestinationNameERK7QString
libktpchat.so:_ZN20AdiumThemeHeaderInfo18setServiceIconPathERK7QString
libktpchat.so:_ZN20AdiumThemeHeaderInfo19setIncomingIconPathERK4QUrl
libktpchat.so:_ZN20AdiumThemeHeaderInfo19setOutgoingIconPathERK4QUrl
libktpchat.so:_ZN20AdiumThemeHeaderInfo25setDestinationDisplayNameERK7QString
libktpchat.so:_ZN20AdiumThemeHeaderInfoC1ERKS_
libktpchat.so:_ZN20AdiumThemeHeaderInfoC1Ev
libktpchat.so:_ZN20AdiumThemeHeaderInfoC2ERKS_
libktpchat.so:_ZN20AdiumThemeHeaderInfoC2Ev
libktpchat.so:_ZN20AdiumThemeHeaderInfoD0Ev
libktpchat.so:_ZN20AdiumThemeHeaderInfoD1Ev
libktpchat.so:_ZN20AdiumThemeHeaderInfoD2Ev
libktpchat.so:_ZN20AdiumThemeHeaderInfoaSERKS_
libktpchat.so:_ZN20AdiumThemeStatusInfo9setStatusERK7QString
libktpchat.so:_ZN20AdiumThemeStatusInfoC1ERKS_
libktpchat.so:_ZN20AdiumThemeStatusInfoC1Ej
libktpchat.so:_ZN20AdiumThemeStatusInfoC2ERKS_
libktpchat.so:_ZN20AdiumThemeStatusInfoC2Ej
libktpchat.so:_ZN20AdiumThemeStatusInfoD0Ev
libktpchat.so:_ZN20AdiumThemeStatusInfoD1Ev
libktpchat.so:_ZN20AdiumThemeStatusInfoD2Ev
libktpchat.so:_ZN20AdiumThemeStatusInfoaSERKS_
libktpchat.so:_ZN21AdiumThemeContentInfo14setSenderColorERK7QString
libktpchat.so:_ZN21AdiumThemeContentInfo15setUserIconPathERK7QString
libktpchat.so:_ZN21AdiumThemeContentInfo19setSenderScreenNameERK7QString
libktpchat.so:_ZN21AdiumThemeContentInfo19setSenderStatusIconERK7QString
libktpchat.so:_ZN21AdiumThemeContentInfo20setSenderDisplayNameERK7QString
libktpchat.so:_ZN21AdiumThemeContentInfoC1EN21AdiumThemeMessageInfo11MessageTypeE
libktpchat.so:_ZN21AdiumThemeContentInfoC1ERKS_
libktpchat.so:_ZN21AdiumThemeContentInfoC1Ev
libktpchat.so:_ZN21AdiumThemeContentInfoC2EN21AdiumThemeMessageInfo11MessageTypeE
libktpchat.so:_ZN21AdiumThemeContentInfoC2ERKS_
libktpchat.so:_ZN21AdiumThemeContentInfoC2Ev
libktpchat.so:_ZN21AdiumThemeContentInfoD0Ev
libktpchat.so:_ZN21AdiumThemeContentInfoD1Ev
libktpchat.so:_ZN21AdiumThemeContentInfoD2Ev
libktpchat.so:_ZN21AdiumThemeContentInfoaSERKS_
libktpchat.so:_ZN21AdiumThemeMessageInfo10setMessageERK7QString
libktpchat.so:_ZN21AdiumThemeMessageInfo18appendMessageClassERK7QString
libktpchat.so:_ZN21AdiumThemeMessageInfo7setTimeERK9QDateTime
libktpchat.so:_ZN21AdiumThemeMessageInfo9setScriptERK7QString
libktpchat.so:_ZN21AdiumThemeMessageInfo9setSenderERK7QString
libktpchat.so:_ZN21AdiumThemeMessageInfoC1ENS_11MessageTypeE
libktpchat.so:_ZN21AdiumThemeMessageInfoC1ERKS_
libktpchat.so:_ZN21AdiumThemeMessageInfoC1Ev
libktpchat.so:_ZN21AdiumThemeMessageInfoC2ENS_11MessageTypeE
libktpchat.so:_ZN21AdiumThemeMessageInfoC2ERKS_
libktpchat.so:_ZN21AdiumThemeMessageInfoC2Ev
libktpchat.so:_ZN21AdiumThemeMessageInfoD0Ev
libktpchat.so:_ZN21AdiumThemeMessageInfoD1Ev
libktpchat.so:_ZN21AdiumThemeMessageInfoD2Ev
libktpchat.so:_ZN21AdiumThemeMessageInfoaSERKS_
libktpchat.so:_ZN22ChatWindowStyleManager10loadStylesEv
libktpchat.so:_ZN22ChatWindowStyleManager11qt_metacallEN11QMetaObject4CallEiPPv
libktpchat.so:_ZN22ChatWindowStyleManager11qt_metacastEPKc
libktpchat.so:_ZN22ChatWindowStyleManager11removeStyleERK7QString
libktpchat.so:_ZN22ChatWindowStyleManager12installStyleERK7QString
libktpchat.so:_ZN22ChatWindowStyleManager13slotNewStylesERK13KFileItemList
libktpchat.so:_ZN22ChatWindowStyleManager16getStyleFromPoolERK7QString
libktpchat.so:_ZN22ChatWindowStyleManager18loadStylesFinishedEv
libktpchat.so:_ZN22ChatWindowStyleManager21getValidStyleFromPoolERK7QString
libktpchat.so:_ZN22ChatWindowStyleManager21slotDirectoryFinishedEv
libktpchat.so:_ZN22ChatWindowStyleManager4selfEv
libktpchat.so:_ZN22ChatWindowStyleManagerC1EP7QObject
libktpchat.so:_ZN22ChatWindowStyleManagerC2EP7QObject
libktpchat.so:_ZN22ChatWindowStyleManagerD0Ev
libktpchat.so:_ZN22ChatWindowStyleManagerD1Ev
libktpchat.so:_ZN22ChatWindowStyleManagerD2Ev
libktpchat.so:_ZN24ChatStylePlistFileReader16readAndParseFileER5QFile
libktpchat.so:_ZN24ChatStylePlistFileReader5parseERK12QDomDocument
libktpchat.so:_ZN24ChatStylePlistFileReaderC1ERK10QByteArray
libktpchat.so:_ZN24ChatStylePlistFileReaderC1ERK7QString
libktpchat.so:_ZN24ChatStylePlistFileReaderC2ERK10QByteArray
libktpchat.so:_ZN24ChatStylePlistFileReaderC2ERK7QString
libktpchat.so:_ZN24ChatStylePlistFileReaderD0Ev
libktpchat.so:_ZN24ChatStylePlistFileReaderD1Ev
libktpchat.so:_ZN24ChatStylePlistFileReaderD2Ev
libktpchat.so:_ZN9OtrStatusC1EN3KTp13OTRTrustLevelE
libktpchat.so:_ZN9OtrStatusC1Ev
libktpchat.so:_ZN9OtrStatusC2EN3KTp13OTRTrustLevelE
libktpchat.so:_ZN9OtrStatusC2Ev
libktpchat.so:_ZNK10ChatWidget10metaObjectEv
libktpchat.so:_ZNK10ChatWidget10titleColorEv
libktpchat.so:_ZNK10ChatWidget10zoomFactorEv
libktpchat.so:_ZNK10ChatWidget11accountIconEv
libktpchat.so:_ZNK10ChatWidget11isGroupChatEv
libktpchat.so:_ZNK10ChatWidget11textChannelEv
libktpchat.so:_ZNK10ChatWidget13chatSearchBarEv
libktpchat.so:_ZNK10ChatWidget15spellDictionaryEv
libktpchat.so:_ZNK10ChatWidget15toggleSearchBarEv
libktpchat.so:_ZNK10ChatWidget18unreadMessageCountEv
libktpchat.so:_ZNK10ChatWidget29currentKeyboardLayoutLanguageEv
libktpchat.so:_ZNK10ChatWidget4iconEv
libktpchat.so:_ZNK10ChatWidget5titleEv
libktpchat.so:_ZNK10ChatWidget7accountEv
libktpchat.so:_ZNK10ChatWidget7isOnTopEv
libktpchat.so:_ZNK10ChatWidget9otrStatusEv
libktpchat.so:_ZNK12NotifyFilter10metaObjectEv
libktpchat.so:_ZNK12ProxyService10metaObjectEv
libktpchat.so:_ZNK12ProxyService12getOTRPolicyEv
libktpchat.so:_ZNK12ProxyService17knownFingerprintsERK15QDBusObjectPath
libktpchat.so:_ZNK12ProxyService21fingerprintForAccountERK15QDBusObjectPath
libktpchat.so:_ZNK13ChatSearchBar10metaObjectEv
libktpchat.so:_ZNK13ChatSearchBar9searchBarEv
libktpchat.so:_ZNK14AdiumThemePage10metaObjectEv
libktpchat.so:_ZNK14AdiumThemeView10metaObjectEv
libktpchat.so:_ZNK14AdiumThemeView11variantNameEv
libktpchat.so:_ZNK14AdiumThemeView11variantPathEv
libktpchat.so:_ZNK14AdiumThemeView12isCustomFontEv
libktpchat.so:_ZNK14AdiumThemeView17isHeaderDisplayedEv
libktpchat.so:_ZNK14AdiumThemeView19showPresenceChangesEv
libktpchat.so:_ZNK14AdiumThemeView20showJoinLeaveChangesEv
libktpchat.so:_ZNK14AdiumThemeView9chatStyleEv
libktpchat.so:_ZNK14TextChatConfig10metaObjectEv
libktpchat.so:_ZNK14TextChatConfig19dontLeaveGroupChatsEv
libktpchat.so:_ZNK14TextChatConfig21imageShareServiceTypeEv
libktpchat.so:_ZNK14TextChatConfig24nicknameCompletionSuffixEv
libktpchat.so:_ZNK14TextChatConfig25rememberTabKeyboardLayoutEv
libktpchat.so:_ZNK15ChatWindowStyle10hasCompactERK7QString
libktpchat.so:_ZNK15ChatWindowStyle12getTopicHtmlEv
libktpchat.so:_ZNK15ChatWindowStyle13getFooterHtmlEv
libktpchat.so:_ZNK15ChatWindowStyle13getHeaderHtmlEv
libktpchat.so:_ZNK15ChatWindowStyle13getStatusHtmlEv
libktpchat.so:_ZNK15ChatWindowStyle15defaultFontSizeEv
libktpchat.so:_ZNK15ChatWindowStyle15getTemplateHtmlEv
libktpchat.so:_ZNK15ChatWindowStyle16getStyleBaseHrefEv
libktpchat.so:_ZNK15ChatWindowStyle17defaultFontFamilyEv
libktpchat.so:_ZNK15ChatWindowStyle17hasActionTemplateEv
libktpchat.so:_ZNK15ChatWindowStyle18defaultVariantNameEv
libktpchat.so:_ZNK15ChatWindowStyle18messageViewVersionEv
libktpchat.so:_ZNK15ChatWindowStyle20getStatusHistoryHtmlEv
libktpchat.so:_ZNK15ChatWindowStyle21getActionIncomingHtmlEv
libktpchat.so:_ZNK15ChatWindowStyle21getActionOutgoingHtmlEv
libktpchat.so:_ZNK15ChatWindowStyle21hasCustomTemplateHtmlEv
libktpchat.so:_ZNK15ChatWindowStyle22getIncomingContentHtmlEv
libktpchat.so:_ZNK15ChatWindowStyle22getIncomingHistoryHtmlEv
libktpchat.so:_ZNK15ChatWindowStyle22getOutgoingContentHtmlEv
libktpchat.so:_ZNK15ChatWindowStyle22getOutgoingHistoryHtmlEv
libktpchat.so:_ZNK15ChatWindowStyle24getOutgoingStateSentHtmlEv
libktpchat.so:_ZNK15ChatWindowStyle24getVoiceClipIncomingHtmlEv
libktpchat.so:_ZNK15ChatWindowStyle25disableCombineConsecutiveEv
libktpchat.so:_ZNK15ChatWindowStyle25getOutgoingStateErrorHtmlEv
libktpchat.so:_ZNK15ChatWindowStyle26getIncomingNextContentHtmlEv
libktpchat.so:_ZNK15ChatWindowStyle26getIncomingNextHistoryHtmlEv
libktpchat.so:_ZNK15ChatWindowStyle26getOutgoingNextContentHtmlEv
libktpchat.so:_ZNK15ChatWindowStyle26getOutgoingNextHistoryHtmlEv
libktpchat.so:_ZNK15ChatWindowStyle27getFileTransferIncomingHtmlEv
libktpchat.so:_ZNK15ChatWindowStyle27getOutgoingStateSendingHtmlEv
libktpchat.so:_ZNK15ChatWindowStyle27getOutgoingStateUnknownHtmlEv
libktpchat.so:_ZNK15ChatWindowStyle2idEv
libktpchat.so:_ZNK15ChatWindowStyle7compactERK7QString
libktpchat.so:_ZNK15ChatWindowStyle7contentENS_18InternalIdentifierE
libktpchat.so:_ZNK15ChatWindowStyle7isValidEv
libktpchat.so:_ZNK15ChatWindowStyle9hasHeaderEv
libktpchat.so:_ZNK20AdiumThemeHeaderInfo10sourceNameEv
libktpchat.so:_ZNK20AdiumThemeHeaderInfo10timeOpenedEv
libktpchat.so:_ZNK20AdiumThemeHeaderInfo11isGroupChatEv
libktpchat.so:_ZNK20AdiumThemeHeaderInfo15destinationNameEv
libktpchat.so:_ZNK20AdiumThemeHeaderInfo15serviceIconPathEv
libktpchat.so:_ZNK20AdiumThemeHeaderInfo16incomingIconPathEv
libktpchat.so:_ZNK20AdiumThemeHeaderInfo16outgoingIconPathEv
libktpchat.so:_ZNK20AdiumThemeHeaderInfo22destinationDisplayNameEv
libktpchat.so:_ZNK20AdiumThemeHeaderInfo7serviceEv
libktpchat.so:_ZNK20AdiumThemeHeaderInfo8chatNameEv
libktpchat.so:_ZNK20AdiumThemeStatusInfo6statusEv
libktpchat.so:_ZNK21AdiumThemeContentInfo11senderColorEv
libktpchat.so:_ZNK21AdiumThemeContentInfo12userIconPathEv
libktpchat.so:_ZNK21AdiumThemeContentInfo16senderScreenNameEv
libktpchat.so:_ZNK21AdiumThemeContentInfo16senderStatusIconEv
libktpchat.so:_ZNK21AdiumThemeContentInfo17senderDisplayNameEv
libktpchat.so:_ZNK21AdiumThemeMessageInfo14messageClassesEv
libktpchat.so:_ZNK21AdiumThemeMessageInfo16messageDirectionEv
libktpchat.so:_ZNK21AdiumThemeMessageInfo4timeEv
libktpchat.so:_ZNK21AdiumThemeMessageInfo4typeEv
libktpchat.so:_ZNK21AdiumThemeMessageInfo6scriptEv
libktpchat.so:_ZNK21AdiumThemeMessageInfo6senderEv
libktpchat.so:_ZNK21AdiumThemeMessageInfo7messageEv
libktpchat.so:_ZNK21AdiumThemeMessageInfo9userIconsEv
libktpchat.so:_ZNK22ChatWindowStyleManager10metaObjectEv
libktpchat.so:_ZNK22ChatWindowStyleManager18getAvailableStylesEv
libktpchat.so:_ZNK24ChatStylePlistFileReader12CFBundleNameEv
libktpchat.so:_ZNK24ChatStylePlistFileReader13showUserIconsERK7QString
libktpchat.so:_ZNK24ChatStylePlistFileReader13showUserIconsEv
libktpchat.so:_ZNK24ChatStylePlistFileReader14defaultVariantEv
libktpchat.so:_ZNK24ChatStylePlistFileReader15allowTextColorsERK7QString
libktpchat.so:_ZNK24ChatStylePlistFileReader15allowTextColorsEv
libktpchat.so:_ZNK24ChatStylePlistFileReader15defaultFontSizeEv
libktpchat.so:_ZNK24ChatStylePlistFileReader17defaultFontFamilyEv
libktpchat.so:_ZNK24ChatStylePlistFileReader18CFBundleIdentifierEv
libktpchat.so:_ZNK24ChatStylePlistFileReader18messageViewVersionEv
libktpchat.so:_ZNK24ChatStylePlistFileReader21CFBundleGetInfoStringEv
libktpchat.so:_ZNK24ChatStylePlistFileReader22defaultBackgroundColorERK7QString
libktpchat.so:_ZNK24ChatStylePlistFileReader22defaultBackgroundColorEv
libktpchat.so:_ZNK24ChatStylePlistFileReader23disableCustomBackgroundEv
libktpchat.so:_ZNK24ChatStylePlistFileReader23displayNameForNoVariantEv
libktpchat.so:_ZNK24ChatStylePlistFileReader25disableCombineConsecutiveEv
libktpchat.so:_ZNK24ChatStylePlistFileReader30defaultBackgroundIsTransparentEv
libktpchat.so:_ZNK24ChatStylePlistFileReader6statusEv
libktpchat.so:_ZNK24ChatStylePlistFileReader9imageMaskEv
libktpchat.so:_ZNK9OtrStatus13otrTrustLevelEv
libktpchat.so:_ZNK9OtrStatuscvbEv
libktpchat.so:_ZNK9OtrStatuseqERKS_
libktpchat.so:_ZNK9OtrStatusneERKS_
libktpchat.so:_ZNK9OtrStatusntEv
libktpchat.so:_ZThn16_N10ChatWidgetD0Ev
libktpchat.so:_ZThn16_N10ChatWidgetD1Ev
libktpchat.so:_ZThn16_N12ProxyServiceD0Ev
libktpchat.so:_ZThn16_N12ProxyServiceD1Ev
libktpchat.so:_ZThn16_N13ChatSearchBarD0Ev
libktpchat.so:_ZThn16_N13ChatSearchBarD1Ev
libktpimagesharer.so:_ZN13ShareProvider11qt_metacallEN11QMetaObject4CallEiPPv
libktpimagesharer.so:_ZN13ShareProvider11qt_metacastEPKc
libktpimagesharer.so:_ZN13ShareProvider12onFileOpenedEPN3KIO3JobE
libktpimagesharer.so:_ZN13ShareProvider13finishedErrorEPS_RK7QString
libktpimagesharer.so:_ZN13ShareProvider15finishedSuccessEPS_RK7QString
libktpimagesharer.so:_ZN13ShareProvider19setShareServiceTypeENS_12ShareServiceE
libktpimagesharer.so:_ZN13ShareProvider21onFinishedReadingFileEPN3KIO3JobERK10QByteArray
libktpimagesharer.so:_ZN13ShareProvider21onMimetypeJobFinishedEP4KJob
libktpimagesharer.so:_ZN13ShareProvider22availableShareServicesEv
libktpimagesharer.so:_ZN13ShareProvider25onTransferJobDataReceivedEPN3KIO3JobE10QByteArray
libktpimagesharer.so:_ZN13ShareProvider27onTransferJobResultReceivedEP4KJob
libktpimagesharer.so:_ZN13ShareProvider7publishERK7QString
libktpimagesharer.so:_ZN13ShareProviderC1ENS_12ShareServiceEP7QObject
libktpimagesharer.so:_ZN13ShareProviderC2ENS_12ShareServiceEP7QObject
libktpimagesharer.so:_ZN13ShareProviderD0Ev
libktpimagesharer.so:_ZN13ShareProviderD1Ev
libktpimagesharer.so:_ZN13ShareProviderD2Ev
libktpimagesharer.so:_ZNK13ShareProvider10metaObjectEv
libktpimagesharer.so:_ZNK13ShareProvider16shareServiceTypeEv
